; Function Attrs: mustprogress uwtable
define hidden void @_ZN7Imf_3_29InputFile4DataC2Ei(ptr noundef nonnull align 8 dereferenceable(257) %this, i32 noundef %numThreads) unnamed_addr #3 align 2 personality ptr @__gxx_personality_v0 {
entry:
  %ref.tmp = alloca %"class.Imath_3_2::Vec2", align 8
  tail call void @llvm.memset.p0.i64(ptr noundef nonnull align 8 dereferenceable(40) %this, i8 0, i64 40, i1 false)
  %header = getelementptr inbounds i8, ptr %this, i64 40
  store <2 x float> zeroinitializer, ptr %ref.tmp, align 8
  call void @_ZN7Imf_3_26HeaderC1EiifRKN9Imath_3_24Vec2IfEEfNS_9LineOrderENS_11CompressionE(ptr noundef nonnull align 8 dereferenceable(49) %header, i32 noundef 64, i32 noundef 64, float noundef 1.000000e+00, ptr noundef nonnull align 4 dereferenceable(8) %ref.tmp, float noundef 1.000000e+00, i32 noundef 0, i32 noundef 3)
  %isTiled = getelementptr inbounds i8, ptr %this, i64 100
  store i8 0, ptr %isTiled, align 4
  %tFile = getelementptr inbounds i8, ptr %this, i64 104
  %0 = getelementptr inbounds i8, ptr %this, i64 152
  store i32 0, ptr %0, align 8
  %_M_parent.i.i.i.i.i.i = getelementptr inbounds i8, ptr %this, i64 160
  store ptr null, ptr %_M_parent.i.i.i.i.i.i, align 8
  %_M_left.i.i.i.i.i.i = getelementptr inbounds i8, ptr %this, i64 168
  call void @llvm.memset.p0.i64(ptr noundef nonnull align 8 dereferenceable(24) %tFile, i8 0, i64 24, i1 false)
  store ptr %0, ptr %_M_left.i.i.i.i.i.i, align 8
  %_M_right.i.i.i.i.i.i = getelementptr inbounds i8, ptr %this, i64 176
  store ptr %0, ptr %_M_right.i.i.i.i.i.i, align 8
  %_M_node_count.i.i.i.i.i.i = getelementptr inbounds i8, ptr %this, i64 184
  %cachedTileY = getelementptr inbounds i8, ptr %this, i64 208
  call void @llvm.memset.p0.i64(ptr noundef nonnull align 8 dereferenceable(24) %_M_node_count.i.i.i.i.i.i, i8 0, i64 24, i1 false)
  store i32 -1, ptr %cachedTileY, align 8
  %numThreads2 = getelementptr inbounds i8, ptr %this, i64 216
  store i32 %numThreads, ptr %numThreads2, align 8
  %partNumber = getelementptr inbounds i8, ptr %this, i64 220
  store i32 -1, ptr %partNumber, align 4
  %part = getelementptr inbounds i8, ptr %this, i64 224
  store ptr null, ptr %part, align 8
  %multiPartBackwardSupport = getelementptr inbounds i8, ptr %this, i64 232
  store i8 0, ptr %multiPartBackwardSupport, align 8
  %multiPartFile = getelementptr inbounds i8, ptr %this, i64 240
  call void @llvm.memset.p0.i64(ptr noundef nonnull align 8 dereferenceable(17) %multiPartFile, i8 0, i64 17, i1 false)
  ret void
}